target datalayout = "e-m:e-p270:32:32-p271:32:32-p272:64:64-i64:64-i128:128-f80:128-n8:16:32:64-S128"
target triple = "x86_64-pc-linux-gnu"

%struct.redisServer = type { i32, i64, ptr, ptr, ptr, i32, i32, i32, i32, i32, ptr, ptr, ptr, ptr, ptr, i32, i32, i32, i32, i64, i32, i32, i32, i32, ptr, i32, i32, [41 x i8], i32, i64, i32, i32, i32, ptr, ptr, i32, i32, i64, ptr, ptr, ptr, ptr, [2 x i32], i32, i32, i32, i32, i32, i32, [16 x ptr], i32, ptr, ptr, i32, [8 x %struct.connListener], i32, %struct.connListener, ptr, ptr, ptr, ptr, ptr, ptr, ptr, ptr, ptr, ptr, i32, ptr, i32, ptr, [3 x %struct.pause_event], [256 x i8], ptr, i64, i32, i32, [128 x i32], i32, i32, i64, i32, i32, i32, i32, i32, i64, i64, i64, i64, i64, i64, i64, i64, i64, i64, double, i64, i64, i64, i64, i64, i64, i64, i64, i64, i64, i64, i64, i64, i64, i64, i64, i64, i64, i64, i64, i64, double, i64, i64, i64, i64, i64, ptr, i64, i64, i64, %struct.malloc_stats, i64, i64, i64, i64, i64, i64, i64, i64, i64, i64, i64, i64, double, [4 x i64], i64, i64, i64, i64, [128 x i64], [128 x i64], i64, i64, [7 x %struct.anon], i64, i64, i64, i64, i64, i64, [4 x %struct.durationStats], i32, i32, i32, i32, i32, i32, i32, i32, i32, i32, i32, i32, i64, i32, i32, i32, i32, i64, i64, i32, i32, i32, i32, i32, ptr, [3 x %struct.clientBufferLimitsConfig], i32, i32, i32, ptr, i32, i32, i32, i32, i32, i32, ptr, ptr, i32, i32, i64, i64, i64, i64, i64, i32, i32, ptr, i32, i32, i64, i64, i64, i64, i64, i32, i32, i64, i32, i32, i32, i32, i32, i32, i32, i32, ptr, i32, i64, i64, i64, i64, i32, ptr, i32, ptr, i32, i32, i32, i64, i64, i64, i64, i32, i32, i32, i32, i32, i32, ptr, i32, i32, ptr, i32, i32, i32, [2 x i32], i32, %struct.redisOpArray, i32, ptr, i32, ptr, i32, i32, i32, i32, i32, i32, i32, [41 x i8], [41 x i8], i64, i64, i64, i64, i32, i32, ptr, i64, i64, %struct.replDataBuf, i64, i64, i32, i32, i32, i32, i32, i32, i32, i32, i32, i64, ptr, i64, ptr, ptr, ptr, i32, i32, ptr, ptr, i32, i32, i32, i64, i64, i64, i64, ptr, ptr, i32, ptr, i64, i32, i32, i32, i64, i32, i32, i32, i32, ptr, i32, i32, [41 x i8], i64, i32, ptr, i32, i32, i64, i64, i32, i32, i32, i32, i32, i64, [3 x i32], i32, i32, i32, [10 x i32], ptr, ptr, i32, i64, ptr, ptr, i32, i32, i32, i32, i64, i64, i64, i64, i64, i64, i64, i64, i64, i64, i32, i32, i64, i64, i32, i64, i64, i64, i64, i64, ptr, ptr, i32, ptr, i32, i32, i32, i32, i64, i64, ptr, ptr, i32, i32, i32, i32, i32, ptr, ptr, ptr, i32, i32, i32, i32, i32, i32, i32, i64, i32, i32, i64, i32, i32, i32, i32, i32, i32, i32, i64, ptr, ptr, i64, ptr, i32, %struct.aclInfo, i32, i64, i32, i32, i32, %struct.redisTLSContextConfig, ptr, ptr, ptr, ptr, ptr, i64, i32, ptr, i32, i32, i32, i64, i32, ptr }
%struct.connListener = type { [16 x i32], i32, ptr, i32, i32, ptr, ptr }
%struct.pause_event = type { i32, i64 }
%struct.malloc_stats = type { i64, i64, i64, i64, i64, i64, i64, i64, i64, i64, i64 }
%struct.anon = type { i64, i64, [16 x i64], i32 }
%struct.durationStats = type { i64, i64, i64 }
%struct.clientBufferLimitsConfig = type { i64, i64, i64 }
%struct.redisOpArray = type { ptr, i32, i32 }
%struct.replDataBuf = type { ptr, i64, i64, i64, i64 }
%struct.aclInfo = type { i64, i64, i64, i64 }
%struct.redisTLSContextConfig = type { ptr, ptr, ptr, ptr, ptr, ptr, ptr, ptr, ptr, ptr, ptr, ptr, i32, i32, i32, i32 }
%struct.client = type { i64, i64, ptr, i8, i8, i8, i8, i32, ptr, ptr, ptr, ptr, ptr, i64, i64, i32, ptr, i32, i32, ptr, i64, ptr, ptr, ptr, ptr, ptr, i32, i32, i64, ptr, i64, ptr, i64, i64, i64, i32, ptr, i64, i64, i32, i32, i32, i32, i64, i64, ptr, i64, i64, i64, i64, i64, i64, i64, i64, [41 x i8], i32, ptr, i32, i32, i64, %struct.multiState, %struct.blockingState, i64, ptr, ptr, ptr, ptr, ptr, ptr, ptr, ptr, ptr, ptr, ptr, ptr, ptr, ptr, i64, ptr, i64, i32, ptr, ptr, ptr, i64, %struct.listNode, i64, i64, i32, i64, ptr }
%struct.multiState = type { ptr, i32, i32, i32, i64, i32 }
%struct.blockingState = type { i32, i64, i32, ptr, i32, i32, i64, ptr, ptr, i64 }
%struct.listNode = type { ptr, ptr, ptr }
%struct.list = type { ptr, ptr, ptr, ptr, ptr, i64 }

@.str = private unnamed_addr constant [113 x i8] c"!(c->flags & CLIENT_MASTER && btype != BLOCKED_MODULE && btype != BLOCKED_LAZYFREE && btype != BLOCKED_POSTPONE)\00", align 1
@.str.1 = private unnamed_addr constant [10 x i8] c"blocked.c\00", align 1
@server = external global %struct.redisServer, align 8

; Function Attrs: nounwind uwtable
define dso_local void @blockClient(ptr noundef %0, i32 noundef %1) #0 {
  %3 = alloca ptr, align 8
  %4 = alloca i32, align 4
  store ptr %0, ptr %3, align 8, !tbaa !5
  store i32 %1, ptr %4, align 4, !tbaa !36
  %5 = load ptr, ptr %3, align 8, !tbaa !5
  %6 = getelementptr inbounds nuw %struct.client, ptr %5, i32 0, i32 1
  %7 = load i64, ptr %6, align 8, !tbaa !37
  %8 = and i64 %7, 2
  %9 = icmp ne i64 %8, 0
  br i1 %9, label %10, label %19

10:                                               ; preds = %2
  %11 = load i32, ptr %4, align 4, !tbaa !36
  %12 = icmp ne i32 %11, 4
  br i1 %12, label %13, label %19

13:                                               ; preds = %10
  %14 = load i32, ptr %4, align 4, !tbaa !36
  %15 = icmp ne i32 %14, 9
  br i1 %15, label %16, label %19

16:                                               ; preds = %13
  %17 = load i32, ptr %4, align 4, !tbaa !36
  %18 = icmp ne i32 %17, 7
  br label %19

19:                                               ; preds = %16, %13, %10, %2
  %20 = phi i1 [ false, %13 ], [ false, %10 ], [ false, %2 ], [ %18, %16 ]
  %21 = xor i1 %20, true
  %22 = xor i1 %21, true
  %23 = xor i1 %22, true
  %24 = zext i1 %23 to i32
  %25 = sext i32 %24 to i64
  %26 = call i64 @llvm.expect.i64(i64 %25, i64 1)
  %27 = icmp ne i64 %26, 0
  br i1 %27, label %28, label %29

28:                                               ; preds = %19
  br label %31

29:                                               ; preds = %19
  call void @_serverAssert(ptr noundef @.str, ptr noundef @.str.1, i32 noundef 72)
  call void @abort() #7
  unreachable

30:                                               ; No predecessors!
  br label %31

31:                                               ; preds = %30, %28
  %32 = load ptr, ptr %3, align 8, !tbaa !5
  %33 = getelementptr inbounds nuw %struct.client, ptr %32, i32 0, i32 1
  %34 = load i64, ptr %33, align 8, !tbaa !37
  %35 = or i64 %34, 16
  store i64 %35, ptr %33, align 8, !tbaa !37
  %36 = load i32, ptr %4, align 4, !tbaa !36
  %37 = load ptr, ptr %3, align 8, !tbaa !5
  %38 = getelementptr inbounds nuw %struct.client, ptr %37, i32 0, i32 61
  %39 = getelementptr inbounds nuw %struct.blockingState, ptr %38, i32 0, i32 0
  store i32 %36, ptr %39, align 8, !tbaa !10
  %40 = load ptr, ptr %3, align 8, !tbaa !5
  %41 = getelementptr inbounds nuw %struct.client, ptr %40, i32 0, i32 1
  %42 = load i64, ptr %41, align 8, !tbaa !37
  %43 = and i64 %42, 134217728
  %44 = icmp ne i64 %43, 0
  br i1 %44, label %48, label %45

45:                                               ; preds = %31
  %46 = load i32, ptr getelementptr inbounds nuw (%struct.redisServer, ptr @server, i32 0, i32 342), align 4, !tbaa !38
  %47 = add i32 %46, 1
  store i32 %47, ptr getelementptr inbounds nuw (%struct.redisServer, ptr @server, i32 0, i32 342), align 4, !tbaa !38
  br label %48

48:                                               ; preds = %45, %31
  %49 = load i32, ptr %4, align 4, !tbaa !36
  %50 = sext i32 %49 to i64
  %51 = getelementptr inbounds [10 x i32], ptr getelementptr inbounds nuw (%struct.redisServer, ptr @server, i32 0, i32 343), i64 0, i64 %50
  %52 = load i32, ptr %51, align 4, !tbaa !36
  %53 = add i32 %52, 1
  store i32 %53, ptr %51, align 4, !tbaa !36
  %54 = load ptr, ptr %3, align 8, !tbaa !5
  call void @addClientToTimeoutTable(ptr noundef %54)
  ret void
}

; Function Attrs: nounwind uwtable
define dso_local void @blockPostponeClient(ptr noundef %0) #0 {
  %2 = alloca ptr, align 8
  store ptr %0, ptr %2, align 8, !tbaa !5
  %3 = load ptr, ptr %2, align 8, !tbaa !5
  %4 = getelementptr inbounds nuw %struct.client, ptr %3, i32 0, i32 61
  %5 = getelementptr inbounds nuw %struct.blockingState, ptr %4, i32 0, i32 1
  store i64 0, ptr %5, align 8, !tbaa !30
  %6 = load ptr, ptr %2, align 8, !tbaa !5
  call void @blockClient(ptr noundef %6, i32 noundef 7)
  %7 = load ptr, ptr getelementptr inbounds nuw (%struct.redisServer, ptr @server, i32 0, i32 70), align 8, !tbaa !81
  %8 = load ptr, ptr %2, align 8, !tbaa !5
  %9 = call ptr @listAddNodeTail(ptr noundef %7, ptr noundef %8)
  %10 = load ptr, ptr getelementptr inbounds nuw (%struct.redisServer, ptr @server, i32 0, i32 70), align 8, !tbaa !81
  %11 = getelementptr inbounds nuw %struct.list, ptr %10, i32 0, i32 1
  %12 = load ptr, ptr %11, align 8, !tbaa !111
  %13 = load ptr, ptr %2, align 8, !tbaa !5
  %14 = getelementptr inbounds nuw %struct.client, ptr %13, i32 0, i32 71
  store ptr %12, ptr %14, align 8, !tbaa !82
  %15 = load ptr, ptr %2, align 8, !tbaa !5
  %16 = getelementptr inbounds nuw %struct.client, ptr %15, i32 0, i32 1
  %17 = load i64, ptr %16, align 8, !tbaa !37
  %18 = or i64 %17, 1073741824
  store i64 %18, ptr %16, align 8, !tbaa !37
  ret void
}