; Function Attrs: nounwind uwtable
define dso_local void @blockPostponeClient(ptr noundef initializes((480, 484), (488, 496)) %0) local_unnamed_addr #0 {
switch.early.test.i:
  %1 = getelementptr inbounds nuw i8, ptr %0, i64 488
  store i64 0, ptr %1, align 8, !tbaa !28
  %2 = getelementptr inbounds nuw i8, ptr %0, i64 8
  %3 = load i64, ptr %2, align 8, !tbaa !34
  %.fr16.i = freeze i64 %3
  %4 = or i64 %.fr16.i, 16
  store i64 %4, ptr %2, align 8, !tbaa !34
  %5 = getelementptr inbounds nuw i8, ptr %0, i64 480
  store i32 7, ptr %5, align 8, !tbaa !5
  %6 = and i64 %.fr16.i, 134217728
  %.not.i = icmp eq i64 %6, 0
  br i1 %.not.i, label %7, label %blockClient.exit

7:                                                ; preds = %switch.early.test.i
  %8 = load i32, ptr getelementptr inbounds nuw (i8, ptr @server, i64 7588), align 4, !tbaa !35
  %9 = add i32 %8, 1
  store i32 %9, ptr getelementptr inbounds nuw (i8, ptr @server, i64 7588), align 4, !tbaa !35
  br label %blockClient.exit

blockClient.exit:                                 ; preds = %switch.early.test.i, %7
  %10 = load i32, ptr getelementptr inbounds nuw (i8, ptr @server, i64 7620), align 4, !tbaa !56
  %11 = add i32 %10, 1
  store i32 %11, ptr getelementptr inbounds nuw (i8, ptr @server, i64 7620), align 4, !tbaa !56
  tail call void @addClientToTimeoutTable(ptr noundef nonnull %0) #5
  %12 = load ptr, ptr getelementptr inbounds nuw (i8, ptr @server, i64 1536), align 8, !tbaa !80
  %13 = tail call ptr @listAddNodeTail(ptr noundef %12, ptr noundef nonnull %0) #5
  %14 = load ptr, ptr getelementptr inbounds nuw (i8, ptr @server, i64 1536), align 8, !tbaa !80
  %15 = getelementptr inbounds nuw i8, ptr %14, i64 8
  %16 = load ptr, ptr %15, align 8, !tbaa !105
  %17 = getelementptr inbounds nuw i8, ptr %0, i64 624
  store ptr %16, ptr %17, align 8, !tbaa !81
  %18 = load i64, ptr %2, align 8, !tbaa !34
  %19 = or i64 %18, 1073741824
  store i64 %19, ptr %2, align 8, !tbaa !34
  ret void
}